(lp1
(dp2
I0
(dp3
S' '
(lp4
I1
assI1
(dp5
S'epsilon'
p6
(lp7
I9
assI2
(dp8
S'\t'
(lp9
I3
assI3
(dp10
g6
(lp11
I9
assI4
(dp12
S'\r'
(lp13
I5
assI5
(dp14
g6
(lp15
I9
assI6
(dp16
S'\n'
(lp17
I7
assI7
(dp18
g6
(lp19
I9
assI8
(dp20
g6
(lp21
I0
aI2
aI4
aI6
assI9
(dp22
g6
(lp23
I11
assI10
(dp24
g6
(lp25
I8
aI40
aI62
assI11
(dp26
sI12
(dp27
S'a'
(lp28
I13
assI13
(dp29
g6
(lp30
I21
assI14
(dp31
S'b'
(lp32
I15
assI15
(dp33
g6
(lp34
I21
assI16
(dp35
S'c'
(lp36
I17
assI17
(dp37
g6
(lp38
I21
assI18
(dp39
S'd'
(lp40
I19
assI19
(dp41
g6
(lp42
I21
assI20
(dp43
g6
(lp44
I16
aI18
aI12
aI14
assI21
(dp45
g6
(lp46
I39
assI22
(dp47
S'a'
(lp48
I23
assI23
(dp49
g6
(lp50
I39
assI24
(dp51
S'b'
(lp52
I25
assI25
(dp53
g6
(lp54
I39
assI26
(dp55
S'c'
(lp56
I27
assI27
(dp57
g6
(lp58
I39
assI28
(dp59
S'd'
(lp60
I29
assI29
(dp61
g6
(lp62
I39
assI30
(dp63
S'0'
(lp64
I31
assI31
(dp65
g6
(lp66
I39
assI32
(dp67
S'1'
(lp68
I33
assI33
(dp69
g6
(lp70
I39
assI34
(dp71
S'2'
(lp72
I35
assI35
(dp73
g6
(lp74
I39
assI36
(dp75
S'3'
(lp76
I37
assI37
(dp77
g6
(lp78
I39
assI39
(dp79
g6
(lp80
I32
aI34
aI36
aI41
aI22
aI24
aI26
aI28
aI30
assI40
(dp81
g6
(lp82
I20
assI41
(dp83
sI42
(dp84
S'0'
(lp85
I43
assI43
(dp86
g6
(lp87
I51
assI44
(dp88
S'1'
(lp89
I45
assI45
(dp90
g6
(lp91
I51
assI46
(dp92
S'2'
(lp93
I47
assI47
(dp94
g6
(lp95
I51
assI48
(dp96
S'3'
(lp97
I49
assI49
(dp98
g6
(lp99
I51
assI50
(dp100
g6
(lp101
I48
aI42
aI44
aI46
assI51
(dp102
g6
(lp103
I61
assI52
(dp104
S'0'
(lp105
I53
assI53
(dp106
g6
(lp107
I61
assI54
(dp108
S'1'
(lp109
I55
assI55
(dp110
g6
(lp111
I61
assI56
(dp112
S'2'
(lp113
I57
assI57
(dp114
g6
(lp115
I61
assI58
(dp116
S'3'
(lp117
I59
assI59
(dp118
g6
(lp119
I61
assI61
(dp120
g6
(lp121
I56
aI58
aI52
aI54
aI63
assI62
(dp122
g6
(lp123
I50
assI63
(dp124
sa(dp125
S'start'
p126
I10
sS'edge'
p127
(lp128
S'a'
aS' '
aS'c'
aS'b'
aS'd'
aS'\t'
aS'\n'
aS'\r'
aS'1'
aS'0'
aS'3'
aS'2'
asS'end'
p129
(dp130
I41
S'NAME'
p131
sI11
S'IGNORE'
p132
sI63
S'NUMBER'
p133
ssa.